target datalayout = "e-m:e-p270:32:32-p271:32:32-p272:64:64-i64:64-i128:128-f80:128-n8:16:32:64-S128"
target triple = "x86_64-unknown-linux-gnu"

%"class.icu_75::UnicodeString" = type { %"class.icu_75::Replaceable", %"union.icu_75::UnicodeString::StackBufferOrFields" }
%"class.icu_75::Replaceable" = type { %"class.icu_75::UObject" }
%"class.icu_75::UObject" = type { ptr }
%"union.icu_75::UnicodeString::StackBufferOrFields" = type { %struct.anon.0, [32 x i8] }
%struct.anon.0 = type { i16, i32, i32, ptr }
%"class.icu_75::ContractionsAndExpansions" = type <{ ptr, ptr, ptr, ptr, i8, i8, [6 x i8], %"class.icu_75::UnicodeSet", %"class.icu_75::UnicodeSet", %"class.icu_75::UnicodeString", ptr, [31 x i64], i32, [4 x i8] }>
%"class.icu_75::UnicodeSet" = type <{ %"class.icu_75::UnicodeFilter", ptr, i32, i32, i8, [7 x i8], ptr, ptr, i32, [4 x i8], ptr, i32, [4 x i8], ptr, ptr, [25 x i32], [4 x i8] }>
%"class.icu_75::UnicodeFilter" = type { %"class.icu_75::UnicodeFunctor", %"class.icu_75::UnicodeMatcher" }
%"class.icu_75::UnicodeFunctor" = type { %"class.icu_75::UObject" }
%"class.icu_75::UnicodeMatcher" = type { ptr }

; Function Attrs: mustprogress nounwind uwtable
define linkonce_odr noundef signext i8 @_ZNK6icu_7513UnicodeString7isEmptyEv(ptr noundef nonnull align 8 dereferenceable(64) %this) #1 comdat align 2 {
entry:
  %this.addr = alloca ptr, align 8
  store ptr %this, ptr %this.addr, align 8
  %this1 = load ptr, ptr %this.addr, align 8
  %fUnion = getelementptr inbounds %"class.icu_75::UnicodeString", ptr %this1, i32 0, i32 1
  %fLengthAndFlags = getelementptr inbounds %struct.anon.0, ptr %fUnion, i32 0, i32 0
  %0 = load i16, ptr %fLengthAndFlags, align 8
  %conv = sext i16 %0 to i32
  %shr = ashr i32 %conv, 5
  %cmp = icmp eq i32 %shr, 0
  %conv2 = zext i1 %cmp to i8
  ret i8 %conv2
}

; Function Attrs: mustprogress uwtable
define void @_ZN6icu_7525ContractionsAndExpansions13addExpansionsEii(ptr noundef nonnull align 8 dereferenceable(764) %this, i32 noundef %start, i32 noundef %end) #0 align 2 {
entry:
  %this.addr = alloca ptr, align 8
  %start.addr = alloca i32, align 4
  %end.addr = alloca i32, align 4
  store ptr %this, ptr %this.addr, align 8
  store i32 %start, ptr %start.addr, align 4
  store i32 %end, ptr %end.addr, align 4
  %this1 = load ptr, ptr %this.addr, align 8
  %unreversedPrefix = getelementptr inbounds %"class.icu_75::ContractionsAndExpansions", ptr %this1, i32 0, i32 9
  %call = call noundef signext i8 @_ZNK6icu_7513UnicodeString7isEmptyEv(ptr noundef nonnull align 8 dereferenceable(64) %unreversedPrefix)
  %tobool = icmp ne i8 %call, 0
  br i1 %tobool, label %land.lhs.true, label %if.else

land.lhs.true:                                    ; preds = %entry
  %suffix = getelementptr inbounds %"class.icu_75::ContractionsAndExpansions", ptr %this1, i32 0, i32 10
  %0 = load ptr, ptr %suffix, align 8
  %cmp = icmp eq ptr %0, null
  br i1 %cmp, label %if.then, label %if.else

if.then:                                          ; preds = %land.lhs.true
  %expansions = getelementptr inbounds %"class.icu_75::ContractionsAndExpansions", ptr %this1, i32 0, i32 2
  %1 = load ptr, ptr %expansions, align 8
  %cmp2 = icmp ne ptr %1, null
  br i1 %cmp2, label %if.then3, label %if.end

if.then3:                                         ; preds = %if.then
  %expansions4 = getelementptr inbounds %"class.icu_75::ContractionsAndExpansions", ptr %this1, i32 0, i32 2
  %2 = load ptr, ptr %expansions4, align 8
  %3 = load i32, ptr %start.addr, align 4
  %4 = load i32, ptr %end.addr, align 4
  %call5 = call noundef nonnull align 8 dereferenceable(200) ptr @_ZN6icu_7510UnicodeSet3addEii(ptr noundef nonnull align 8 dereferenceable(200) %2, i32 noundef %3, i32 noundef %4)
  br label %if.end

if.end:                                           ; preds = %if.then3, %if.then
  br label %if.end7

if.else:                                          ; preds = %land.lhs.true, %entry
  %5 = load i32, ptr %start.addr, align 4
  %6 = load i32, ptr %end.addr, align 4
  %expansions6 = getelementptr inbounds %"class.icu_75::ContractionsAndExpansions", ptr %this1, i32 0, i32 2
  %7 = load ptr, ptr %expansions6, align 8
  call void @_ZN6icu_7525ContractionsAndExpansions10addStringsEiiPNS_10UnicodeSetE(ptr noundef nonnull align 8 dereferenceable(764) %this1, i32 noundef %5, i32 noundef %6, ptr noundef %7)
  br label %if.end7

if.end7:                                          ; preds = %if.else, %if.end
  ret void
}