; Function Attrs: mustprogress uwtable
define void @_ZN6icu_7525ContractionsAndExpansions13addExpansionsEii(ptr noundef nonnull align 8 dereferenceable(764) %this, i32 noundef %start, i32 noundef %end) local_unnamed_addr #0 align 2 {
entry:
  %fUnion.i = getelementptr inbounds i8, ptr %this, i64 448
  %0 = load i16, ptr %fUnion.i, align 8
  %cmp.i = icmp ult i16 %0, 32
  %suffix = getelementptr inbounds i8, ptr %this, i64 504
  %1 = load ptr, ptr %suffix, align 8
  %cmp = icmp eq ptr %1, null
  %or.cond = select i1 %cmp.i, i1 %cmp, i1 false
  %expansions = getelementptr inbounds i8, ptr %this, i64 16
  %2 = load ptr, ptr %expansions, align 8
  br i1 %or.cond, label %if.then, label %if.else

if.then:                                          ; preds = %entry
  %cmp2.not = icmp eq ptr %2, null
  br i1 %cmp2.not, label %if.end7, label %if.then3

if.then3:                                         ; preds = %if.then
  %call5 = tail call noundef nonnull align 8 dereferenceable(200) ptr @_ZN6icu_7510UnicodeSet3addEii(ptr noundef nonnull align 8 dereferenceable(200) %2, i32 noundef %start, i32 noundef %end)
  br label %if.end7

if.else:                                          ; preds = %entry
  tail call void @_ZN6icu_7525ContractionsAndExpansions10addStringsEiiPNS_10UnicodeSetE(ptr noundef nonnull align 8 dereferenceable(764) %this, i32 noundef %start, i32 noundef %end, ptr noundef %2)
  br label %if.end7

if.end7:                                          ; preds = %if.then, %if.then3, %if.else
  ret void
}